target datalayout = "e-m:e-p270:32:32-p271:32:32-p272:64:64-i64:64-i128:128-f80:128-n8:16:32:64-S128"
target triple = "x86_64-pc-linux-gnu"

%struct.ClusterInfo = type { %struct.ControlData, ptr, %struct.DbInfoArr, ptr, ptr, ptr, ptr, ptr, i16, i32, [64 x i8], i32, ptr, i32 }
%struct.ControlData = type { i32, i32, [25 x i8], i32, i32, i32, i32, i32, i32, i32, i32, i32, i32, i32, i32, i32, i32, i32, i32, i8, i8, i32 }
%struct.DbInfoArr = type { ptr, i32 }
%struct.OSInfo = type { ptr, ptr, i8, ptr, i32, ptr, i32, ptr }
%struct.LogOpts = type { ptr, i8, i8, ptr, ptr, ptr, ptr, i8 }
%struct.DbInfo = type { i32, ptr, [1024 x i8], %struct.RelInfoArr, %struct.LogicalSlotInfoArr }
%struct.RelInfoArr = type { ptr, i32 }
%struct.LogicalSlotInfoArr = type { i32, ptr }
%struct.LibraryInfo = type { ptr, i32 }

@old_cluster = external global %struct.ClusterInfo, align 8
@os_info = external global %struct.OSInfo, align 8
@new_cluster = external global %struct.ClusterInfo, align 8
@.str.1 = private unnamed_addr constant [10 x i8] c"template1\00", align 1
@.str.2 = private unnamed_addr constant [44 x i8] c"Checking for presence of required libraries\00", align 1
@.str.3 = private unnamed_addr constant [6 x i8] c"%s/%s\00", align 1
@log_opts = external global %struct.LogOpts, align 8
@.str.4 = private unnamed_addr constant [23 x i8] c"loadable_libraries.txt\00", align 1
@.str.5 = private unnamed_addr constant [7 x i8] c"LOAD '\00", align 1
@.str.6 = private unnamed_addr constant [2 x i8] c"'\00", align 1
@.str.7 = private unnamed_addr constant [2 x i8] c"w\00", align 1
@.str.8 = private unnamed_addr constant [29 x i8] c"could not open file \22%s\22: %m\00", align 1
@.str.9 = private unnamed_addr constant [32 x i8] c"could not load library \22%s\22: %s\00", align 1
@.str.10 = private unnamed_addr constant [17 x i8] c"In database: %s\0A\00", align 1
@.str.11 = private unnamed_addr constant [6 x i8] c"fatal\00", align 1

; Function Attrs: nounwind uwtable
define dso_local void @check_loadable_libraries() #0 {
  %1 = alloca ptr, align 8
  %2 = alloca i32, align 4
  %3 = alloca i32, align 4
  %4 = alloca ptr, align 8
  %5 = alloca [1024 x i8], align 16
  %6 = alloca ptr, align 8
  %7 = alloca i32, align 4
  %8 = alloca [2056 x i8], align 16
  %9 = alloca ptr, align 8
  call void @llvm.lifetime.start.p0(i64 8, ptr %1) #7
  %10 = call ptr @connectToServer(ptr noundef @new_cluster, ptr noundef @.str.1)
  store ptr %10, ptr %1, align 8
  call void @llvm.lifetime.start.p0(i64 4, ptr %2) #7
  call void @llvm.lifetime.start.p0(i64 4, ptr %3) #7
  store i32 0, ptr %3, align 4
  call void @llvm.lifetime.start.p0(i64 8, ptr %4) #7
  store ptr null, ptr %4, align 8
  call void @llvm.lifetime.start.p0(i64 1024, ptr %5) #7
  call void (ptr, ...) @prep_status(ptr noundef @.str.2)
  %11 = getelementptr inbounds [1024 x i8], ptr %5, i64 0, i64 0
  %12 = load ptr, ptr getelementptr inbounds nuw (%struct.LogOpts, ptr @log_opts, i32 0, i32 4), align 8
  %13 = call i32 (ptr, i64, ptr, ...) @pg_snprintf(ptr noundef %11, i64 noundef 1024, ptr noundef @.str.3, ptr noundef %12, ptr noundef @.str.4)
  %14 = load ptr, ptr getelementptr inbounds nuw (%struct.OSInfo, ptr @os_info, i32 0, i32 5), align 8
  %15 = load i32, ptr getelementptr inbounds nuw (%struct.OSInfo, ptr @os_info, i32 0, i32 6), align 8
  %16 = sext i32 %15 to i64
  call void @pg_qsort(ptr noundef %14, i64 noundef %16, i64 noundef 16, ptr noundef @library_name_compare)
  store i32 0, ptr %2, align 4
  br label %17

17:                                               ; preds = %100, %0
  %18 = load i32, ptr %2, align 4
  %19 = load i32, ptr getelementptr inbounds nuw (%struct.OSInfo, ptr @os_info, i32 0, i32 6), align 8
  %20 = icmp slt i32 %18, %19
  br i1 %20, label %21, label %103

21:                                               ; preds = %17
  call void @llvm.lifetime.start.p0(i64 8, ptr %6) #7
  %22 = load ptr, ptr getelementptr inbounds nuw (%struct.OSInfo, ptr @os_info, i32 0, i32 5), align 8
  %23 = load i32, ptr %2, align 4
  %24 = sext i32 %23 to i64
  %25 = getelementptr inbounds %struct.LibraryInfo, ptr %22, i64 %24
  %26 = getelementptr inbounds nuw %struct.LibraryInfo, ptr %25, i32 0, i32 0
  %27 = load ptr, ptr %26, align 8
  store ptr %27, ptr %6, align 8
  call void @llvm.lifetime.start.p0(i64 4, ptr %7) #7
  %28 = load ptr, ptr %6, align 8
  %29 = call i64 @strlen(ptr noundef %28) #8
  %30 = trunc i64 %29 to i32
  store i32 %30, ptr %7, align 4
  call void @llvm.lifetime.start.p0(i64 2056, ptr %8) #7
  call void @llvm.lifetime.start.p0(i64 8, ptr %9) #7
  %31 = load i32, ptr %2, align 4
  %32 = icmp eq i32 %31, 0
  br i1 %32, label %44, label %33

33:                                               ; preds = %21
  %34 = load ptr, ptr %6, align 8
  %35 = load ptr, ptr getelementptr inbounds nuw (%struct.OSInfo, ptr @os_info, i32 0, i32 5), align 8
  %36 = load i32, ptr %2, align 4
  %37 = sub i32 %36, 1
  %38 = sext i32 %37 to i64
  %39 = getelementptr inbounds %struct.LibraryInfo, ptr %35, i64 %38
  %40 = getelementptr inbounds nuw %struct.LibraryInfo, ptr %39, i32 0, i32 0
  %41 = load ptr, ptr %40, align 8
  %42 = call i32 @strcmp(ptr noundef %34, ptr noundef %41) #8
  %43 = icmp ne i32 %42, 0
  br i1 %43, label %44, label %82

44:                                               ; preds = %33, %21
  %45 = getelementptr inbounds [2056 x i8], ptr %8, i64 0, i64 0
  %46 = call ptr @strcpy(ptr noundef %45, ptr noundef @.str.5) #7
  %47 = load ptr, ptr %1, align 8
  %48 = getelementptr inbounds [2056 x i8], ptr %8, i64 0, i64 0
  %49 = getelementptr inbounds [2056 x i8], ptr %8, i64 0, i64 0
  %50 = call i64 @strlen(ptr noundef %49) #8
  %51 = getelementptr inbounds nuw i8, ptr %48, i64 %50
  %52 = load ptr, ptr %6, align 8
  %53 = load i32, ptr %7, align 4
  %54 = sext i32 %53 to i64
  %55 = call i64 @PQescapeStringConn(ptr noundef %47, ptr noundef %51, ptr noundef %52, i64 noundef %54, ptr noundef null)
  %56 = getelementptr inbounds [2056 x i8], ptr %8, i64 0, i64 0
  %57 = call ptr @strcat(ptr noundef %56, ptr noundef @.str.6) #7
  %58 = load ptr, ptr %1, align 8
  %59 = getelementptr inbounds [2056 x i8], ptr %8, i64 0, i64 0
  %60 = call ptr @PQexec(ptr noundef %58, ptr noundef %59)
  store ptr %60, ptr %9, align 8
  %61 = load ptr, ptr %9, align 8
  %62 = call i32 @PQresultStatus(ptr noundef %61)
  %63 = icmp ne i32 %62, 1
  br i1 %63, label %64, label %79

64:                                               ; preds = %44
  store i32 1, ptr %3, align 4
  %65 = load ptr, ptr %4, align 8
  %66 = icmp eq ptr %65, null
  br i1 %66, label %67, label %73

67:                                               ; preds = %64
  %68 = getelementptr inbounds [1024 x i8], ptr %5, i64 0, i64 0
  %69 = call noalias ptr @fopen(ptr noundef %68, ptr noundef @.str.7)
  store ptr %69, ptr %4, align 8
  %70 = icmp eq ptr %69, null
  br i1 %70, label %71, label %73

71:                                               ; preds = %67
  %72 = getelementptr inbounds [1024 x i8], ptr %5, i64 0, i64 0
  call void (ptr, ...) @pg_fatal(ptr noundef @.str.8, ptr noundef %72) #9
  unreachable

73:                                               ; preds = %67, %64
  %74 = load ptr, ptr %4, align 8
  %75 = load ptr, ptr %6, align 8
  %76 = load ptr, ptr %1, align 8
  %77 = call ptr @PQerrorMessage(ptr noundef %76)
  %78 = call i32 (ptr, ptr, ...) @pg_fprintf(ptr noundef %74, ptr noundef @.str.9, ptr noundef %75, ptr noundef %77)
  br label %80

79:                                               ; preds = %44
  store i32 0, ptr %3, align 4
  br label %80

80:                                               ; preds = %79, %73
  %81 = load ptr, ptr %9, align 8
  call void @PQclear(ptr noundef %81)
  br label %82

82:                                               ; preds = %80, %33
  %83 = load i32, ptr %3, align 4
  %84 = icmp ne i32 %83, 0
  br i1 %84, label %85, label %99

85:                                               ; preds = %82
  %86 = load ptr, ptr %4, align 8
  %87 = load ptr, ptr getelementptr inbounds nuw (%struct.ClusterInfo, ptr @old_cluster, i32 0, i32 2), align 8
  %88 = load ptr, ptr getelementptr inbounds nuw (%struct.OSInfo, ptr @os_info, i32 0, i32 5), align 8
  %89 = load i32, ptr %2, align 4
  %90 = sext i32 %89 to i64
  %91 = getelementptr inbounds %struct.LibraryInfo, ptr %88, i64 %90
  %92 = getelementptr inbounds nuw %struct.LibraryInfo, ptr %91, i32 0, i32 1
  %93 = load i32, ptr %92, align 8
  %94 = sext i32 %93 to i64
  %95 = getelementptr inbounds %struct.DbInfo, ptr %87, i64 %94
  %96 = getelementptr inbounds nuw %struct.DbInfo, ptr %95, i32 0, i32 1
  %97 = load ptr, ptr %96, align 8
  %98 = call i32 (ptr, ptr, ...) @pg_fprintf(ptr noundef %86, ptr noundef @.str.10, ptr noundef %97)
  br label %99

99:                                               ; preds = %85, %82
  call void @llvm.lifetime.end.p0(i64 8, ptr %9) #7
  call void @llvm.lifetime.end.p0(i64 2056, ptr %8) #7
  call void @llvm.lifetime.end.p0(i64 4, ptr %7) #7
  call void @llvm.lifetime.end.p0(i64 8, ptr %6) #7
  br label %100

100:                                              ; preds = %99
  %101 = load i32, ptr %2, align 4
  %102 = add i32 %101, 1
  store i32 %102, ptr %2, align 4
  br label %17, !llvm.loop !10

103:                                              ; preds = %17
  %104 = load ptr, ptr %1, align 8
  call void @PQfinish(ptr noundef %104)
  %105 = load ptr, ptr %4, align 8
  %106 = icmp ne ptr %105, null
  br i1 %106, label %107, label %111

107:                                              ; preds = %103
  %108 = load ptr, ptr %4, align 8
  %109 = call i32 @fclose(ptr noundef %108)
  call void (i32, ptr, ...) @pg_log(i32 noundef 3, ptr noundef @.str.11)
  %110 = getelementptr inbounds [1024 x i8], ptr %5, i64 0, i64 0
  call void (ptr, ...) @pg_fatal(ptr noundef @.str.12, ptr noundef %110) #9
  unreachable

111:                                              ; preds = %103
  call void @check_ok()
  br label %112

112:                                              ; preds = %111
  call void @llvm.lifetime.end.p0(i64 1024, ptr %5) #7
  call void @llvm.lifetime.end.p0(i64 8, ptr %4) #7
  call void @llvm.lifetime.end.p0(i64 4, ptr %3) #7
  call void @llvm.lifetime.end.p0(i64 4, ptr %2) #7
  call void @llvm.lifetime.end.p0(i64 8, ptr %1) #7
  ret void
}