; Function Attrs: nounwind uwtable
define dso_local void @check_loadable_libraries() local_unnamed_addr #0 {
  %1 = alloca [1024 x i8], align 16
  %2 = alloca [2056 x i8], align 16
  %3 = tail call ptr @connectToServer(ptr noundef nonnull @new_cluster, ptr noundef nonnull @.str.1) #9
  call void @llvm.lifetime.start.p0(i64 1024, ptr nonnull %1) #9
  tail call void (ptr, ...) @prep_status(ptr noundef nonnull @.str.2) #9
  %4 = load ptr, ptr getelementptr inbounds nuw (i8, ptr @log_opts, i64 24), align 8
  %5 = call i32 (ptr, i64, ptr, ...) @pg_snprintf(ptr noundef nonnull %1, i64 noundef 1024, ptr noundef nonnull @.str.3, ptr noundef %4, ptr noundef nonnull @.str.4) #9
  %6 = load ptr, ptr getelementptr inbounds nuw (i8, ptr @os_info, i64 40), align 8
  %7 = load i32, ptr getelementptr inbounds nuw (i8, ptr @os_info, i64 48), align 8
  %8 = sext i32 %7 to i64
  call void @pg_qsort(ptr noundef %6, i64 noundef %8, i64 noundef 16, ptr noundef nonnull @library_name_compare) #9
  %9 = load i32, ptr getelementptr inbounds nuw (i8, ptr @os_info, i64 48), align 8
  %10 = icmp sgt i32 %9, 0
  br i1 %10, label %.lr.ph, label %._crit_edge.thread

._crit_edge.thread:                               ; preds = %0
  call void @PQfinish(ptr noundef %3) #9
  br label %53

.lr.ph:                                           ; preds = %0, %47
  %indvars.iv = phi i64 [ %indvars.iv.next, %47 ], [ 0, %0 ]
  %.02232 = phi i32 [ %.1, %47 ], [ 0, %0 ]
  %.02331 = phi ptr [ %.124, %47 ], [ null, %0 ]
  %11 = load ptr, ptr getelementptr inbounds nuw (i8, ptr @os_info, i64 40), align 8
  %12 = getelementptr %struct.LibraryInfo, ptr %11, i64 %indvars.iv
  %13 = load ptr, ptr %12, align 8
  %14 = call i64 @strlen(ptr noundef nonnull dereferenceable(1) %13) #10
  call void @llvm.lifetime.start.p0(i64 2056, ptr nonnull %2) #9
  %15 = icmp eq i64 %indvars.iv, 0
  br i1 %15, label %20, label %16

16:                                               ; preds = %.lr.ph
  %17 = getelementptr i8, ptr %12, i64 -16
  %18 = load ptr, ptr %17, align 8
  %19 = call i32 @strcmp(ptr noundef nonnull dereferenceable(1) %13, ptr noundef nonnull dereferenceable(1) %18) #10
  %.not27 = icmp eq i32 %19, 0
  br i1 %.not27, label %37, label %20

20:                                               ; preds = %16, %.lr.ph
  call void @llvm.memcpy.p0.p0.i64(ptr noundef nonnull align 16 dereferenceable(7) %2, ptr noundef nonnull align 1 dereferenceable(7) @.str.5, i64 7, i1 false) #9
  %21 = call i64 @strlen(ptr noundef nonnull dereferenceable(1) %2) #10
  %22 = getelementptr inbounds nuw i8, ptr %2, i64 %21
  %sext = shl i64 %14, 32
  %23 = ashr exact i64 %sext, 32
  %24 = call i64 @PQescapeStringConn(ptr noundef %3, ptr noundef nonnull %22, ptr noundef nonnull %13, i64 noundef %23, ptr noundef null) #9
  %strlen = call i64 @strlen(ptr nonnull dereferenceable(1) %2)
  %endptr = getelementptr inbounds i8, ptr %2, i64 %strlen
  store i16 39, ptr %endptr, align 1
  %25 = call ptr @PQexec(ptr noundef %3, ptr noundef nonnull %2) #9
  %26 = call i32 @PQresultStatus(ptr noundef %25) #9
  %.not28 = icmp eq i32 %26, 1
  br i1 %.not28, label %36, label %27

27:                                               ; preds = %20
  %28 = icmp eq ptr %.02331, null
  br i1 %28, label %29, label %33

29:                                               ; preds = %27
  %30 = call noalias ptr @fopen(ptr noundef nonnull %1, ptr noundef nonnull @.str.7)
  %31 = icmp eq ptr %30, null
  br i1 %31, label %32, label %33

32:                                               ; preds = %29
  call void (ptr, ...) @pg_fatal(ptr noundef nonnull @.str.8, ptr noundef nonnull %1) #11
  unreachable

33:                                               ; preds = %29, %27
  %.225 = phi ptr [ %30, %29 ], [ %.02331, %27 ]
  %34 = call ptr @PQerrorMessage(ptr noundef %3) #9
  %35 = call i32 (ptr, ptr, ...) @pg_fprintf(ptr noundef nonnull %.225, ptr noundef nonnull @.str.9, ptr noundef nonnull %13, ptr noundef %34) #9
  br label %36

36:                                               ; preds = %20, %33
  %.3 = phi ptr [ %.225, %33 ], [ %.02331, %20 ]
  %.2 = phi i32 [ 1, %33 ], [ 0, %20 ]
  call void @PQclear(ptr noundef %25) #9
  br label %37

37:                                               ; preds = %36, %16
  %.124 = phi ptr [ %.3, %36 ], [ %.02331, %16 ]
  %.1 = phi i32 [ %.2, %36 ], [ %.02232, %16 ]
  %.not29 = icmp eq i32 %.1, 0
  br i1 %.not29, label %47, label %38

38:                                               ; preds = %37
  %39 = load ptr, ptr getelementptr inbounds nuw (i8, ptr @old_cluster, i64 120), align 8
  %40 = load ptr, ptr getelementptr inbounds nuw (i8, ptr @os_info, i64 40), align 8
  %41 = getelementptr inbounds nuw %struct.LibraryInfo, ptr %40, i64 %indvars.iv, i32 1
  %42 = load i32, ptr %41, align 8
  %43 = sext i32 %42 to i64
  %44 = getelementptr inbounds %struct.DbInfo, ptr %39, i64 %43, i32 1
  %45 = load ptr, ptr %44, align 8
  %46 = call i32 (ptr, ptr, ...) @pg_fprintf(ptr noundef %.124, ptr noundef nonnull @.str.10, ptr noundef %45) #9
  br label %47

47:                                               ; preds = %38, %37
  call void @llvm.lifetime.end.p0(i64 2056, ptr nonnull %2) #9
  %indvars.iv.next = add nuw nsw i64 %indvars.iv, 1
  %48 = load i32, ptr getelementptr inbounds nuw (i8, ptr @os_info, i64 48), align 8
  %49 = sext i32 %48 to i64
  %50 = icmp slt i64 %indvars.iv.next, %49
  br i1 %50, label %.lr.ph, label %._crit_edge, !llvm.loop !10

._crit_edge:                                      ; preds = %47
  call void @PQfinish(ptr noundef %3) #9
  %.not = icmp eq ptr %.124, null
  br i1 %.not, label %53, label %51

51:                                               ; preds = %._crit_edge
  %52 = call i32 @fclose(ptr noundef nonnull %.124)
  call void (i32, ptr, ...) @pg_log(i32 noundef 3, ptr noundef nonnull @.str.11) #9
  call void (ptr, ...) @pg_fatal(ptr noundef nonnull @.str.12, ptr noundef nonnull %1) #11
  unreachable

53:                                               ; preds = %._crit_edge.thread, %._crit_edge
  call void @check_ok() #9
  call void @llvm.lifetime.end.p0(i64 1024, ptr nonnull %1) #9
  ret void
}